; Function Attrs: mustprogress uwtable
define dso_local void @_ZN19btTriangleMeshShapeC2EP23btStridingMeshInterface(ptr noundef nonnull align 8 dereferenceable(80) %this, ptr noundef %meshInterface) unnamed_addr #0 align 2 personality ptr @__gxx_personality_v0 {
entry:
  %vec.i = alloca %class.btVector3, align 4
  %tmp.i = alloca %class.btVector3, align 8
  tail call void @_ZN14btConcaveShapeC2Ev(ptr noundef nonnull align 8 dereferenceable(36) %this)
  store ptr getelementptr inbounds ({ [21 x ptr] }, ptr @_ZTV19btTriangleMeshShape, i64 0, i32 0, i64 2), ptr %this, align 8
  %m_localAabbMin = getelementptr inbounds i8, ptr %this, i64 36
  %m_localAabbMax = getelementptr inbounds i8, ptr %this, i64 52
  %m_meshInterface = getelementptr inbounds i8, ptr %this, i64 72
  store ptr %meshInterface, ptr %m_meshInterface, align 8
  %m_shapeType = getelementptr inbounds i8, ptr %this, i64 8
  store i32 21, ptr %m_shapeType, align 8
  %vtable = load ptr, ptr %meshInterface, align 8
  %vfn = getelementptr inbounds i8, ptr %vtable, i64 80
  %0 = load ptr, ptr %vfn, align 8
  %call = invoke noundef zeroext i1 %0(ptr noundef nonnull align 8 dereferenceable(24) %meshInterface)
          to label %invoke.cont3 unwind label %lpad.loopexit.split-lp

invoke.cont3:                                     ; preds = %entry
  br i1 %call, label %if.then, label %if.else

if.then:                                          ; preds = %invoke.cont3
  %vtable6 = load ptr, ptr %meshInterface, align 8
  %vfn7 = getelementptr inbounds i8, ptr %vtable6, i64 96
  %1 = load ptr, ptr %vfn7, align 8
  invoke void %1(ptr noundef nonnull align 8 dereferenceable(24) %meshInterface, ptr noundef nonnull %m_localAabbMin, ptr noundef nonnull %m_localAabbMax)
          to label %if.end unwind label %lpad.loopexit.split-lp

lpad.loopexit:                                    ; preds = %for.body.i, %call4.i.noexc
  %lpad.loopexit5 = landingpad { ptr, i32 }
          cleanup
  br label %lpad

lpad.loopexit.split-lp:                           ; preds = %entry, %if.then
  %lpad.loopexit.split-lp6 = landingpad { ptr, i32 }
          cleanup
  br label %lpad

lpad:                                             ; preds = %lpad.loopexit.split-lp, %lpad.loopexit
  %lpad.phi = phi { ptr, i32 } [ %lpad.loopexit5, %lpad.loopexit ], [ %lpad.loopexit.split-lp6, %lpad.loopexit.split-lp ]
  call void @_ZN14btConcaveShapeD2Ev(ptr noundef nonnull align 8 dereferenceable(36) %this) #14
  resume { ptr, i32 } %lpad.phi

if.else:                                          ; preds = %invoke.cont3
  call void @llvm.lifetime.start.p0(i64 16, ptr nonnull %vec.i)
  call void @llvm.lifetime.start.p0(i64 16, ptr nonnull %tmp.i)
  %2 = getelementptr inbounds i8, ptr %tmp.i, i64 8
  %m_collisionMargin.i = getelementptr inbounds i8, ptr %this, i64 32
  br label %for.body.i

for.body.i:                                       ; preds = %call17.i.noexc, %if.else
  %indvars.iv.i = phi i64 [ 0, %if.else ], [ %indvars.iv.next.i, %call17.i.noexc ]
  %arrayidx.i = getelementptr inbounds float, ptr %vec.i, i64 %indvars.iv.i
  call void @llvm.memset.p0.i64(ptr noundef nonnull align 4 dereferenceable(16) %vec.i, i8 0, i64 16, i1 false)
  store float 1.000000e+00, ptr %arrayidx.i, align 4
  %vtable.i = load ptr, ptr %this, align 8
  %vfn.i = getelementptr inbounds i8, ptr %vtable.i, i64 136
  %3 = load ptr, ptr %vfn.i, align 8
  %call4.i3 = invoke { <2 x float>, <2 x float> } %3(ptr noundef nonnull align 8 dereferenceable(80) %this, ptr noundef nonnull align 4 dereferenceable(16) %vec.i)
          to label %call4.i.noexc unwind label %lpad.loopexit

call4.i.noexc:                                    ; preds = %for.body.i
  %4 = extractvalue { <2 x float>, <2 x float> } %call4.i3, 0
  store <2 x float> %4, ptr %tmp.i, align 8
  %5 = extractvalue { <2 x float>, <2 x float> } %call4.i3, 1
  store <2 x float> %5, ptr %2, align 8
  %arrayidx7.i = getelementptr inbounds float, ptr %tmp.i, i64 %indvars.iv.i
  %6 = load float, ptr %arrayidx7.i, align 4
  %7 = load float, ptr %m_collisionMargin.i, align 8
  %add.i = fadd float %6, %7
  %arrayidx10.i = getelementptr inbounds float, ptr %m_localAabbMax, i64 %indvars.iv.i
  store float %add.i, ptr %arrayidx10.i, align 4
  store float -1.000000e+00, ptr %arrayidx.i, align 4
  %vtable15.i = load ptr, ptr %this, align 8
  %vfn16.i = getelementptr inbounds i8, ptr %vtable15.i, i64 136
  %8 = load ptr, ptr %vfn16.i, align 8
  %call17.i4 = invoke { <2 x float>, <2 x float> } %8(ptr noundef nonnull align 8 dereferenceable(80) %this, ptr noundef nonnull align 4 dereferenceable(16) %vec.i)
          to label %call17.i.noexc unwind label %lpad.loopexit

call17.i.noexc:                                   ; preds = %call4.i.noexc
  %9 = extractvalue { <2 x float>, <2 x float> } %call17.i4, 0
  %10 = extractvalue { <2 x float>, <2 x float> } %call17.i4, 1
  store <2 x float> %9, ptr %tmp.i, align 8
  store <2 x float> %10, ptr %2, align 8
  %11 = load float, ptr %arrayidx7.i, align 4
  %12 = load float, ptr %m_collisionMargin.i, align 8
  %sub.i = fsub float %11, %12
  %arrayidx25.i = getelementptr inbounds float, ptr %m_localAabbMin, i64 %indvars.iv.i
  store float %sub.i, ptr %arrayidx25.i, align 4
  %indvars.iv.next.i = add nuw nsw i64 %indvars.iv.i, 1
  %exitcond.not.i = icmp eq i64 %indvars.iv.next.i, 3
  br i1 %exitcond.not.i, label %_ZN19btTriangleMeshShape15recalcLocalAabbEv.exit, label %for.body.i, !llvm.loop !5

_ZN19btTriangleMeshShape15recalcLocalAabbEv.exit: ; preds = %call17.i.noexc
  call void @llvm.lifetime.end.p0(i64 16, ptr nonnull %vec.i)
  call void @llvm.lifetime.end.p0(i64 16, ptr nonnull %tmp.i)
  br label %if.end

if.end:                                           ; preds = %_ZN19btTriangleMeshShape15recalcLocalAabbEv.exit, %if.then
  ret void
}